; ModuleID = 'source-C-CXX/18/287.c'
source_filename = "source-C-CXX/18/287.c"
target datalayout = "e-m:e-p270:32:32-p271:32:32-p272:64:64-i64:64-f80:128-n8:16:32:64-S128"
target triple = "x86_64-pc-linux-gnu"

%struct._IO_FILE = type { i32, i8*, i8*, i8*, i8*, i8*, i8*, i8*, i8*, i8*, i8*, i8*, %struct._IO_marker*, %struct._IO_FILE*, i32, i32, i64, i16, i8, [1 x i8], i8*, i64, %struct._IO_codecvt*, %struct._IO_wide_data*, %struct._IO_FILE*, i8*, i64, i32, [20 x i8] }
%struct._IO_marker = type opaque
%struct._IO_codecvt = type opaque
%struct._IO_wide_data = type opaque

@.str = private unnamed_addr constant [3 x i8] c"%s\00", align 1
@stdin = external local_unnamed_addr global %struct._IO_FILE*, align 8

; Function Attrs: nofree nounwind sspstrong uwtable
define dso_local void @main() local_unnamed_addr #0 {
  %1 = alloca [100 x [100 x i8]], align 16
  %2 = alloca [25 x i8], align 16
  %3 = alloca [25 x i8], align 16
  %4 = alloca [25 x i32], align 16
  %5 = getelementptr inbounds [100 x [100 x i8]], [100 x [100 x i8]]* %1, i64 0, i64 0, i64 0
  call void @llvm.lifetime.start.p0i8(i64 10000, i8* nonnull %5) #5
  %6 = getelementptr inbounds [25 x i8], [25 x i8]* %2, i64 0, i64 0
  call void @llvm.lifetime.start.p0i8(i64 25, i8* nonnull %6) #5
  %7 = getelementptr inbounds [25 x i8], [25 x i8]* %3, i64 0, i64 0
  call void @llvm.lifetime.start.p0i8(i64 25, i8* nonnull %7) #5
  %8 = bitcast [25 x i32]* %4 to i8*
  call void @llvm.lifetime.start.p0i8(i64 100, i8* nonnull %8) #5
  br label %9

9:                                                ; preds = %9, %0
  %10 = phi i64 [ %13, %9 ], [ 0, %0 ]
  %11 = getelementptr inbounds [100 x [100 x i8]], [100 x [100 x i8]]* %1, i64 0, i64 %10
  %12 = call i32 (i8*, ...) @__isoc99_scanf(i8* getelementptr inbounds ([3 x i8], [3 x i8]* @.str, i64 0, i64 0), [100 x i8]* nonnull %11)
  %13 = add nuw i64 %10, 1
  %14 = load %struct._IO_FILE*, %struct._IO_FILE** @stdin, align 8, !tbaa !5
  %15 = call i32 @getc(%struct._IO_FILE* %14) #5
  %16 = icmp eq i32 %15, 10
  br i1 %16, label %17, label %9, !llvm.loop !9

17:                                               ; preds = %9
  %18 = call i32 (i8*, ...) @__isoc99_scanf(i8* getelementptr inbounds ([3 x i8], [3 x i8]* @.str, i64 0, i64 0), [25 x i8]* nonnull %2)
  %19 = call i32 (i8*, ...) @__isoc99_scanf(i8* getelementptr inbounds ([3 x i8], [3 x i8]* @.str, i64 0, i64 0), [25 x i8]* nonnull %3)
  %20 = add i64 %10, 1
  %21 = and i64 %20, 4294967295
  br label %22

22:                                               ; preds = %17, %22
  %23 = phi i64 [ 0, %17 ], [ %29, %22 ]
  %24 = getelementptr inbounds [25 x i32], [25 x i32]* %4, i64 0, i64 %23
  %25 = getelementptr inbounds [100 x [100 x i8]], [100 x [100 x i8]]* %1, i64 0, i64 %23, i64 0
  %26 = call i32 @strcmp(i8* noundef nonnull %25, i8* noundef nonnull %6) #6
  %27 = icmp ne i32 %26, 0
  %28 = zext i1 %27 to i32
  store i32 %28, i32* %24, align 4
  %29 = add nuw nsw i64 %23, 1
  %30 = icmp eq i64 %29, %21
  br i1 %30, label %31, label %22, !llvm.loop !11

31:                                               ; preds = %22
  %32 = getelementptr inbounds [25 x i32], [25 x i32]* %4, i64 0, i64 0
  %33 = load i32, i32* %32, align 16, !tbaa !12
  %34 = icmp eq i32 %33, 0
  %35 = select i1 %34, i8* %7, i8* %5
  %36 = call i32 (i8*, ...) @printf(i8* nonnull dereferenceable(1) getelementptr inbounds ([3 x i8], [3 x i8]* @.str, i64 0, i64 0), i8* nonnull %35)
  %37 = icmp eq i64 %21, 1
  br i1 %37, label %49, label %38

38:                                               ; preds = %31, %38
  %39 = phi i64 [ %47, %38 ], [ 1, %31 ]
  %40 = call i32 @putchar(i32 32)
  %41 = getelementptr inbounds [25 x i32], [25 x i32]* %4, i64 0, i64 %39
  %42 = load i32, i32* %41, align 4, !tbaa !12
  %43 = icmp eq i32 %42, 0
  %44 = getelementptr inbounds [100 x [100 x i8]], [100 x [100 x i8]]* %1, i64 0, i64 %39, i64 0
  %45 = select i1 %43, i8* %7, i8* %44
  %46 = call i32 (i8*, ...) @printf(i8* nonnull dereferenceable(1) getelementptr inbounds ([3 x i8], [3 x i8]* @.str, i64 0, i64 0), i8* nonnull %45)
  %47 = add nuw nsw i64 %39, 1
  %48 = icmp eq i64 %47, %21
  br i1 %48, label %49, label %38, !llvm.loop !14

49:                                               ; preds = %38, %31
  call void @llvm.lifetime.end.p0i8(i64 100, i8* nonnull %8) #5
  call void @llvm.lifetime.end.p0i8(i64 25, i8* nonnull %7) #5
  call void @llvm.lifetime.end.p0i8(i64 25, i8* nonnull %6) #5
  call void @llvm.lifetime.end.p0i8(i64 10000, i8* nonnull %5) #5
  ret void
}

; Function Attrs: argmemonly mustprogress nofree nosync nounwind willreturn
declare void @llvm.lifetime.start.p0i8(i64 immarg, i8* nocapture) #1

; Function Attrs: nofree nounwind
declare noundef i32 @__isoc99_scanf(i8* nocapture noundef readonly, ...) local_unnamed_addr #2

; Function Attrs: argmemonly mustprogress nofree nounwind readonly willreturn
declare i32 @strcmp(i8* nocapture, i8* nocapture) local_unnamed_addr #3

; Function Attrs: nofree nounwind
declare noundef i32 @printf(i8* nocapture noundef readonly, ...) local_unnamed_addr #2

; Function Attrs: argmemonly mustprogress nofree nosync nounwind willreturn
declare void @llvm.lifetime.end.p0i8(i64 immarg, i8* nocapture) #1

; Function Attrs: nofree nounwind
declare noundef i32 @getc(%struct._IO_FILE* nocapture noundef) local_unnamed_addr #2

; Function Attrs: nofree nounwind
declare noundef i32 @putchar(i32 noundef) local_unnamed_addr #4


!llvm.module.flags = !{!0, !1, !2, !3}
!llvm.ident = !{!4}

!0 = !{i32 1, !"wchar_size", i32 4}
!1 = !{i32 7, !"PIC Level", i32 2}
!2 = !{i32 7, !"PIE Level", i32 2}
!3 = !{i32 7, !"uwtable", i32 1}
!4 = !{!"clang version 13.0.0"}
!5 = !{!6, !6, i64 0}
!6 = !{!"any pointer", !7, i64 0}
!7 = !{!"omnipotent char", !8, i64 0}
!8 = !{!"Simple C/C++ TBAA"}
!9 = distinct !{!9, !10}
!10 = !{!"llvm.loop.mustprogress"}
!11 = distinct !{!11, !10}
!12 = !{!13, !13, i64 0}
!13 = !{!"int", !7, i64 0}
!14 = distinct !{!14, !10, !15}
!15 = !{!"llvm.loop.peeled.count", i32 1}
